target datalayout = "e-m:e-p270:32:32-p271:32:32-p272:64:64-i64:64-i128:128-f80:128-n8:16:32:64-S128"
target triple = "x86_64-pc-linux-gnu"

%"class.icu_77::UnicodeString" = type { %"class.icu_77::Replaceable", %"union.icu_77::UnicodeString::StackBufferOrFields" }
%"class.icu_77::Replaceable" = type { %"class.icu_77::UObject" }
%"class.icu_77::UObject" = type { ptr }
%"union.icu_77::UnicodeString::StackBufferOrFields" = type { %struct.anon.0, [32 x i8] }
%struct.anon.0 = type { i16, i32, i32, ptr }
%"class.icu_77::CollationDataBuilder" = type { %"class.icu_77::UObject", ptr, ptr, ptr, ptr, %"class.icu_77::UVector32", %"class.icu_77::UVector64", %"class.icu_77::UVector", %"class.icu_77::UnicodeSet", %"class.icu_77::UnicodeString", i32, [4 x i8], %"class.icu_77::UnicodeSet", i8, i8, i8, ptr, ptr }
%"class.icu_77::UVector32" = type { %"class.icu_77::UObject", i32, i32, i32, ptr }
%"class.icu_77::UVector64" = type { %"class.icu_77::UObject", i32, i32, i32, ptr }
%"class.icu_77::UVector" = type { %"class.icu_77::UObject", i32, i32, ptr, ptr, ptr }
%"class.icu_77::UnicodeSet" = type <{ %"class.icu_77::UnicodeFilter", ptr, i32, i32, i8, [7 x i8], ptr, ptr, i32, [4 x i8], ptr, i32, [4 x i8], ptr, ptr, [25 x i32], [4 x i8] }>
%"class.icu_77::UnicodeFilter" = type { %"class.icu_77::UnicodeFunctor", %"class.icu_77::UnicodeMatcher" }
%"class.icu_77::UnicodeFunctor" = type { %"class.icu_77::UObject" }
%"class.icu_77::UnicodeMatcher" = type { ptr }

; Function Attrs: inlinehint mustprogress nounwind uwtable
define linkonce_odr noundef i32 @_ZN6icu_779Collation11tagFromCE32Ej(i32 noundef %0) #3 comdat align 2 {
  %2 = alloca i32, align 4
  store i32 %0, ptr %2, align 4, !tbaa !57
  %3 = load i32, ptr %2, align 4, !tbaa !57
  %4 = and i32 %3, 15
  ret i32 %4
}

; Function Attrs: inlinehint mustprogress nounwind uwtable
define linkonce_odr noundef signext i8 @_ZN6icu_779Collation13isSpecialCE32Ej(i32 noundef %0) #3 comdat align 2 {
  %2 = alloca i32, align 4
  store i32 %0, ptr %2, align 4, !tbaa !57
  %3 = load i32, ptr %2, align 4, !tbaa !57
  %4 = and i32 %3, 255
  %5 = icmp uge i32 %4, 192
  %6 = zext i1 %5 to i8
  ret i8 %6
}

; Function Attrs: inlinehint mustprogress uwtable
define linkonce_odr noundef signext i8 @_ZN6icu_779Collation10hasCE32TagEji(i32 noundef %0, i32 noundef %1) #7 comdat align 2 {
  %3 = alloca i32, align 4
  %4 = alloca i32, align 4
  store i32 %0, ptr %3, align 4, !tbaa !57
  store i32 %1, ptr %4, align 4, !tbaa !57
  %5 = load i32, ptr %3, align 4, !tbaa !57
  %6 = call noundef signext i8 @_ZN6icu_779Collation13isSpecialCE32Ej(i32 noundef %5)
  %7 = icmp ne i8 %6, 0
  br i1 %7, label %8, label %13

8:                                                ; preds = %2
  %9 = load i32, ptr %3, align 4, !tbaa !57
  %10 = call noundef i32 @_ZN6icu_779Collation11tagFromCE32Ej(i32 noundef %9)
  %11 = load i32, ptr %4, align 4, !tbaa !57
  %12 = icmp eq i32 %10, %11
  br label %13

13:                                               ; preds = %8, %2
  %14 = phi i1 [ false, %2 ], [ %12, %8 ]
  %15 = zext i1 %14 to i8
  ret i8 %15
}

; Function Attrs: inlinehint mustprogress nounwind uwtable
define linkonce_odr noundef i32 @_ZN6icu_779Collation26primaryFromLongPrimaryCE32Ej(i32 noundef %0) #3 comdat align 2 {
  %2 = alloca i32, align 4
  store i32 %0, ptr %2, align 4, !tbaa !57
  %3 = load i32, ptr %2, align 4, !tbaa !57
  %4 = and i32 %3, -256
  ret i32 %4
}

; Function Attrs: inlinehint mustprogress uwtable
define linkonce_odr noundef signext i8 @_ZN6icu_779Collation17isLongPrimaryCE32Ej(i32 noundef %0) #7 comdat align 2 {
  %2 = alloca i32, align 4
  store i32 %0, ptr %2, align 4, !tbaa !57
  %3 = load i32, ptr %2, align 4, !tbaa !57
  %4 = call noundef signext i8 @_ZN6icu_779Collation10hasCE32TagEji(i32 noundef %3, i32 noundef 1)
  ret i8 %4
}

; Function Attrs: mustprogress uwtable
define noundef i32 @_ZNK6icu_7720CollationDataBuilder24getLongPrimaryIfSingleCEEi(ptr noundef nonnull align 8 dereferenceable(640) %0, i32 noundef %1) #4 align 2 {
  %3 = alloca i32, align 4
  %4 = alloca ptr, align 8
  %5 = alloca i32, align 4
  %6 = alloca i32, align 4
  %7 = alloca i32, align 4
  store ptr %0, ptr %4, align 8, !tbaa !13
  store i32 %1, ptr %5, align 4, !tbaa !57
  %8 = load ptr, ptr %4, align 8
  call void @llvm.lifetime.start.p0(i64 4, ptr %6) #11
  %9 = getelementptr inbounds nuw %"class.icu_77::CollationDataBuilder", ptr %8, i32 0, i32 4
  %10 = load ptr, ptr %9, align 8, !tbaa !99
  %11 = load i32, ptr %5, align 4, !tbaa !57
  %12 = call i32 @utrie2_get32_77(ptr noundef %10, i32 noundef %11)
  store i32 %12, ptr %6, align 4, !tbaa !57
  %13 = load i32, ptr %6, align 4, !tbaa !57
  %14 = call noundef signext i8 @_ZN6icu_779Collation17isLongPrimaryCE32Ej(i32 noundef %13)
  %15 = icmp ne i8 %14, 0
  br i1 %15, label %16, label %19

16:                                               ; preds = %2
  %17 = load i32, ptr %6, align 4, !tbaa !57
  %18 = call noundef i32 @_ZN6icu_779Collation26primaryFromLongPrimaryCE32Ej(i32 noundef %17)
  store i32 %18, ptr %3, align 4
  store i32 1, ptr %7, align 4
  br label %20

19:                                               ; preds = %2
  store i32 0, ptr %3, align 4
  store i32 1, ptr %7, align 4
  br label %20

20:                                               ; preds = %19, %16
  call void @llvm.lifetime.end.p0(i64 4, ptr %6) #11
  %21 = load i32, ptr %3, align 4
  ret i32 %21
}