; Function Attrs: mustprogress uwtable
define noundef range(i32 0, -255) i32 @_ZNK6icu_7720CollationDataBuilder24getLongPrimaryIfSingleCEEi(ptr noundef nonnull readonly align 8 captures(none) dereferenceable(640) %0, i32 noundef %1) local_unnamed_addr #6 align 2 {
  %3 = getelementptr inbounds nuw i8, ptr %0, i64 32
  %4 = load ptr, ptr %3, align 8, !tbaa !80
  %5 = tail call i32 @utrie2_get32_77(ptr noundef %4, i32 noundef %1)
  %6 = and i32 %5, 207
  %narrow.i.i.not = icmp eq i32 %6, 193
  %7 = and i32 %5, -256
  %spec.select = select i1 %narrow.i.i.not, i32 %7, i32 0
  ret i32 %spec.select
}